target datalayout = "e-m:e-p270:32:32-p271:32:32-p272:64:64-i64:64-i128:128-f80:128-n8:16:32:64-S128"
target triple = "x86_64-pc-linux-gnu"

@hf_ieee80211_eht_multi_link_traffic_control = internal global i32 0, align 4
@hf_ieee80211_eht_multi_link_traffic_indication = internal global i32 0, align 4
@ett_eht_eht_multi_link_tc = internal global i32 0, align 4
@ml_traffic_control_hdrs = internal constant [4 x ptr] [ptr @hf_ieee80211_eht_multi_link_tc_bitmap_size, ptr @hf_ieee80211_eht_multi_link_tc_aid_offset, ptr @hf_ieee80211_eht_multi_link_tc_reserved, ptr null], align 16

; Function Attrs: null_pointer_is_valid sspstrong uwtable
define internal void @dissect_multi_link_traffic(ptr noundef %0, ptr noundef %1, ptr noundef %2, i32 noundef %3, i32 noundef %4) #1 {
  %6 = alloca ptr, align 8
  %7 = alloca ptr, align 8
  %8 = alloca ptr, align 8
  %9 = alloca i32, align 4
  %10 = alloca i32, align 4
  store ptr %0, ptr %6, align 8
  store ptr %1, ptr %7, align 8
  store ptr %2, ptr %8, align 8
  store i32 %3, ptr %9, align 4
  store i32 %4, ptr %10, align 4
  %11 = load ptr, ptr %8, align 8
  %12 = load ptr, ptr %6, align 8
  %13 = load i32, ptr %9, align 4
  %14 = load i32, ptr @hf_ieee80211_eht_multi_link_traffic_control, align 4
  %15 = load i32, ptr @ett_eht_eht_multi_link_tc, align 4
  %16 = call ptr @proto_tree_add_bitmask(ptr noundef %11, ptr noundef %12, i32 noundef %13, i32 noundef %14, i32 noundef %15, ptr noundef @ml_traffic_control_hdrs, i32 noundef -2147483648)
  %17 = load i32, ptr %9, align 4
  %18 = add i32 %17, 2
  store i32 %18, ptr %9, align 4
  %19 = load i32, ptr %10, align 4
  %20 = sub i32 %19, 2
  store i32 %20, ptr %10, align 4
  %21 = load i32, ptr %10, align 4
  %22 = icmp sle i32 %21, 0
  br i1 %22, label %23, label %24

23:                                               ; preds = %5
  br label %33

24:                                               ; preds = %5
  %25 = load ptr, ptr %8, align 8
  %26 = load i32, ptr @hf_ieee80211_eht_multi_link_traffic_indication, align 4
  %27 = load ptr, ptr %6, align 8
  %28 = load i32, ptr %9, align 4
  %29 = load ptr, ptr %6, align 8
  %30 = load i32, ptr %9, align 4
  %31 = call i32 @tvb_captured_length_remaining(ptr noundef %29, i32 noundef %30)
  %32 = call ptr @proto_tree_add_item(ptr noundef %25, i32 noundef %26, ptr noundef %27, i32 noundef %28, i32 noundef %31, i32 noundef 0)
  br label %33

33:                                               ; preds = %24, %23
  ret void
}