; Function Attrs: null_pointer_is_valid sspstrong uwtable
define internal fastcc void @dissect_multi_link_traffic(ptr noundef %0, ptr noundef %1, i32 noundef range(i32 0, 2147483647) %2) unnamed_addr #2 {
  %4 = load i32, ptr @hf_ieee80211_eht_multi_link_traffic_control, align 4
  %5 = load i32, ptr @ett_eht_eht_multi_link_tc, align 4
  %6 = tail call ptr @proto_tree_add_bitmask(ptr noundef %1, ptr noundef %0, i32 noundef 1, i32 noundef %4, i32 noundef %5, ptr noundef nonnull @ml_traffic_control_hdrs, i32 noundef -2147483648)
  %7 = icmp samesign ult i32 %2, 3
  br i1 %7, label %12, label %8

8:                                                ; preds = %3
  %9 = load i32, ptr @hf_ieee80211_eht_multi_link_traffic_indication, align 4
  %10 = tail call i32 @tvb_captured_length_remaining(ptr noundef %0, i32 noundef 3)
  %11 = tail call ptr @proto_tree_add_item(ptr noundef %1, i32 noundef %9, ptr noundef %0, i32 noundef 3, i32 noundef %10, i32 noundef 0)
  br label %12

12:                                               ; preds = %3, %8
  ret void
}